target datalayout = "e-m:e-p270:32:32-p271:32:32-p272:64:64-i64:64-i128:128-f80:128-n8:16:32:64-S128"
target triple = "x86_64-pc-linux-gnu"

%struct.AVProbeData = type { ptr, ptr, i32, ptr }
%struct.AVFormatContext = type { ptr, ptr, ptr, ptr, ptr, i32, i32, ptr, i32, ptr, i32, ptr, ptr, i64, i64, i64, i32, i32, i32, i64, i64, ptr, i32, i32, ptr, i32, i32, i32, i32, ptr, i64, i32, i32, %struct.AVIOInterruptCB, i32, i32, i32, i32, i64, i32, i32, i32, i32, i32, i32, i32, i32, i32, i32, i32, i32, i64, i32, i32, i32, i32, i32, ptr, ptr, ptr, ptr, i32, ptr, ptr, ptr, ptr, i32, ptr, ptr, i64, ptr, ptr, ptr, i64 }
%struct.AVIOInterruptCB = type { ptr, ptr }
%struct.DHAVContext = type { i32, i32, i32, i32, i32, i32, i32, i32, i32, i32, i32, i32, i32, i32, i64, i64, i32, i32 }
%struct.AVStream = type { ptr, i32, i32, ptr, ptr, %struct.AVRational, i64, i64, i64, i32, i32, %struct.AVRational, ptr, %struct.AVRational, %struct.AVPacket, i32, %struct.AVRational, i32 }
%struct.AVPacket = type { ptr, i64, i64, ptr, i32, i32, i32, ptr, i32, i64, i64, ptr, ptr, %struct.AVRational }
%struct.AVRational = type { i32, i32 }
%struct.DHAVStream = type { i64, i64, i64, i64 }
%struct.FFStream = type { %struct.AVStream, ptr, i32, ptr, i32, ptr, i32, %struct.anon, i32, i32, %struct.FFFrac, ptr, ptr, i32, i32, i64, i64, i32, i32, i32, i64, i64, i64, i32, i64, i64, i64, i32, i32, [17 x i64], [17 x i8], [17 x i64], i64, i8, i8, %struct.AVRational, %struct.AVProbeData, ptr, i64, i32, i32, i32, ptr, i32, i32, i64, i64, ptr, %struct.AVRational }
%struct.anon = type { ptr, i32 }
%struct.FFFrac = type { i64, i64, i64 }
%struct.AVIndexEntry = type { i64, i64, i32, i32 }

; Function Attrs: alwaysinline nounwind uwtable
define internal i64 @avio_tell(ptr noundef %0) #4 {
  %2 = alloca ptr, align 8
  store ptr %0, ptr %2, align 8, !tbaa !108
  %3 = load ptr, ptr %2, align 8, !tbaa !108
  %4 = call i64 @avio_seek(ptr noundef %3, i64 noundef 0, i32 noundef 1)
  ret i64 %4
}

; Function Attrs: alwaysinline nounwind uwtable
define internal ptr @ffstream(ptr noundef %0) #4 {
  %2 = alloca ptr, align 8
  store ptr %0, ptr %2, align 8, !tbaa !49
  %3 = load ptr, ptr %2, align 8, !tbaa !49
  ret ptr %3
}

; Function Attrs: nounwind uwtable
define internal i32 @dhav_read_seek(ptr noundef %0, i32 noundef %1, i64 noundef %2, i32 noundef %3) #0 {
  %5 = alloca i32, align 4
  %6 = alloca ptr, align 8
  %7 = alloca i32, align 4
  %8 = alloca i64, align 8
  %9 = alloca i32, align 4
  %10 = alloca ptr, align 8
  %11 = alloca ptr, align 8
  %12 = alloca ptr, align 8
  %13 = alloca i32, align 4
  %14 = alloca i64, align 8
  %15 = alloca i32, align 4
  %16 = alloca i32, align 4
  %17 = alloca ptr, align 8
  %18 = alloca ptr, align 8
  store ptr %0, ptr %6, align 8, !tbaa !14
  store i32 %1, ptr %7, align 4, !tbaa !34
  store i64 %2, ptr %8, align 8, !tbaa !87
  store i32 %3, ptr %9, align 4, !tbaa !34
  call void @llvm.lifetime.start.p0(i64 8, ptr %10) #7
  %19 = load ptr, ptr %6, align 8, !tbaa !14
  %20 = getelementptr inbounds nuw %struct.AVFormatContext, ptr %19, i32 0, i32 3
  %21 = load ptr, ptr %20, align 8, !tbaa !16
  store ptr %21, ptr %10, align 8, !tbaa !31
  call void @llvm.lifetime.start.p0(i64 8, ptr %11) #7
  %22 = load ptr, ptr %6, align 8, !tbaa !14
  %23 = getelementptr inbounds nuw %struct.AVFormatContext, ptr %22, i32 0, i32 7
  %24 = load ptr, ptr %23, align 8, !tbaa !88
  %25 = load i32, ptr %7, align 4, !tbaa !34
  %26 = sext i32 %25 to i64
  %27 = getelementptr inbounds ptr, ptr %24, i64 %26
  %28 = load ptr, ptr %27, align 8, !tbaa !49
  store ptr %28, ptr %11, align 8, !tbaa !49
  call void @llvm.lifetime.start.p0(i64 8, ptr %12) #7
  %29 = load ptr, ptr %11, align 8, !tbaa !49
  %30 = call ptr @ffstream(ptr noundef %29)
  store ptr %30, ptr %12, align 8, !tbaa !89
  call void @llvm.lifetime.start.p0(i64 4, ptr %13) #7
  %31 = load ptr, ptr %11, align 8, !tbaa !49
  %32 = load i64, ptr %8, align 8, !tbaa !87
  %33 = load i32, ptr %9, align 4, !tbaa !34
  %34 = call i32 @av_index_search_timestamp(ptr noundef %31, i64 noundef %32, i32 noundef %33)
  store i32 %34, ptr %13, align 4, !tbaa !34
  call void @llvm.lifetime.start.p0(i64 8, ptr %14) #7
  %35 = load i32, ptr %13, align 4, !tbaa !34
  %36 = icmp slt i32 %35, 0
  br i1 %36, label %37, label %38

37:                                               ; preds = %4
  store i32 -1, ptr %5, align 4
  store i32 1, ptr %15, align 4
  br label %100

38:                                               ; preds = %4
  %39 = load ptr, ptr %12, align 8, !tbaa !89
  %40 = getelementptr inbounds nuw %struct.FFStream, ptr %39, i32 0, i32 12
  %41 = load ptr, ptr %40, align 8, !tbaa !91
  %42 = load i32, ptr %13, align 4, !tbaa !34
  %43 = sext i32 %42 to i64
  %44 = getelementptr inbounds %struct.AVIndexEntry, ptr %41, i64 %43
  %45 = getelementptr inbounds nuw %struct.AVIndexEntry, ptr %44, i32 0, i32 1
  %46 = load i64, ptr %45, align 8, !tbaa !102
  store i64 %46, ptr %14, align 8, !tbaa !87
  %47 = load i64, ptr %14, align 8, !tbaa !87
  %48 = load i64, ptr %8, align 8, !tbaa !87
  %49 = icmp slt i64 %47, %48
  br i1 %49, label %50, label %51

50:                                               ; preds = %38
  store i32 -11, ptr %5, align 4
  store i32 1, ptr %15, align 4
  br label %100

51:                                               ; preds = %38
  %52 = load ptr, ptr %6, align 8, !tbaa !14
  %53 = getelementptr inbounds nuw %struct.AVFormatContext, ptr %52, i32 0, i32 4
  %54 = load ptr, ptr %53, align 8, !tbaa !33
  %55 = load ptr, ptr %12, align 8, !tbaa !89
  %56 = getelementptr inbounds nuw %struct.FFStream, ptr %55, i32 0, i32 12
  %57 = load ptr, ptr %56, align 8, !tbaa !91
  %58 = load i32, ptr %13, align 4, !tbaa !34
  %59 = sext i32 %58 to i64
  %60 = getelementptr inbounds %struct.AVIndexEntry, ptr %57, i64 %59
  %61 = getelementptr inbounds nuw %struct.AVIndexEntry, ptr %60, i32 0, i32 0
  %62 = load i64, ptr %61, align 8, !tbaa !104
  %63 = call i64 @avio_seek(ptr noundef %54, i64 noundef %62, i32 noundef 0)
  %64 = icmp slt i64 %63, 0
  br i1 %64, label %65, label %66

65:                                               ; preds = %51
  store i32 -1, ptr %5, align 4
  store i32 1, ptr %15, align 4
  br label %100

66:                                               ; preds = %51
  call void @llvm.lifetime.start.p0(i64 4, ptr %16) #7
  store i32 0, ptr %16, align 4, !tbaa !34
  br label %67

67:                                               ; preds = %90, %66
  %68 = load i32, ptr %16, align 4, !tbaa !34
  %69 = load ptr, ptr %6, align 8, !tbaa !14
  %70 = getelementptr inbounds nuw %struct.AVFormatContext, ptr %69, i32 0, i32 6
  %71 = load i32, ptr %70, align 4, !tbaa !105
  %72 = icmp ult i32 %68, %71
  br i1 %72, label %74, label %73

73:                                               ; preds = %67
  store i32 2, ptr %15, align 4
  call void @llvm.lifetime.end.p0(i64 4, ptr %16) #7
  br label %93

74:                                               ; preds = %67
  call void @llvm.lifetime.start.p0(i64 8, ptr %17) #7
  %75 = load ptr, ptr %6, align 8, !tbaa !14
  %76 = getelementptr inbounds nuw %struct.AVFormatContext, ptr %75, i32 0, i32 7
  %77 = load ptr, ptr %76, align 8, !tbaa !88
  %78 = load i32, ptr %16, align 4, !tbaa !34
  %79 = sext i32 %78 to i64
  %80 = getelementptr inbounds ptr, ptr %77, i64 %79
  %81 = load ptr, ptr %80, align 8, !tbaa !49
  store ptr %81, ptr %17, align 8, !tbaa !49
  call void @llvm.lifetime.start.p0(i64 8, ptr %18) #7
  %82 = load ptr, ptr %17, align 8, !tbaa !49
  %83 = getelementptr inbounds nuw %struct.AVStream, ptr %82, i32 0, i32 4
  %84 = load ptr, ptr %83, align 8, !tbaa !73
  store ptr %84, ptr %18, align 8, !tbaa !71
  %85 = load i64, ptr %14, align 8, !tbaa !87
  %86 = load ptr, ptr %18, align 8, !tbaa !71
  %87 = getelementptr inbounds nuw %struct.DHAVStream, ptr %86, i32 0, i32 3
  store i64 %85, ptr %87, align 8, !tbaa !106
  %88 = load ptr, ptr %18, align 8, !tbaa !71
  %89 = getelementptr inbounds nuw %struct.DHAVStream, ptr %88, i32 0, i32 2
  store i64 -9223372036854775808, ptr %89, align 8, !tbaa !74
  call void @llvm.lifetime.end.p0(i64 8, ptr %18) #7
  call void @llvm.lifetime.end.p0(i64 8, ptr %17) #7
  br label %90

90:                                               ; preds = %74
  %91 = load i32, ptr %16, align 4, !tbaa !34
  %92 = add nsw i32 %91, 1
  store i32 %92, ptr %16, align 4, !tbaa !34
  br label %67, !llvm.loop !107

93:                                               ; preds = %73
  %94 = load ptr, ptr %6, align 8, !tbaa !14
  %95 = getelementptr inbounds nuw %struct.AVFormatContext, ptr %94, i32 0, i32 4
  %96 = load ptr, ptr %95, align 8, !tbaa !33
  %97 = call i64 @avio_tell(ptr noundef %96)
  %98 = load ptr, ptr %10, align 8, !tbaa !31
  %99 = getelementptr inbounds nuw %struct.DHAVContext, ptr %98, i32 0, i32 14
  store i64 %97, ptr %99, align 8, !tbaa !35
  store i32 0, ptr %5, align 4
  store i32 1, ptr %15, align 4
  br label %100

100:                                              ; preds = %93, %65, %50, %37
  call void @llvm.lifetime.end.p0(i64 8, ptr %14) #7
  call void @llvm.lifetime.end.p0(i64 4, ptr %13) #7
  call void @llvm.lifetime.end.p0(i64 8, ptr %12) #7
  call void @llvm.lifetime.end.p0(i64 8, ptr %11) #7
  call void @llvm.lifetime.end.p0(i64 8, ptr %10) #7
  %101 = load i32, ptr %5, align 4
  ret i32 %101
}