; Function Attrs: nounwind uwtable
define internal range(i32 -11, 1) i32 @dhav_read_seek(ptr noundef readonly captures(none) %0, i32 noundef %1, i64 noundef %2, i32 noundef %3) #1 {
  %5 = getelementptr inbounds nuw i8, ptr %0, i64 24
  %6 = load ptr, ptr %5, align 8, !tbaa !12
  %7 = getelementptr inbounds nuw i8, ptr %0, i64 48
  %8 = load ptr, ptr %7, align 8, !tbaa !81
  %9 = sext i32 %1 to i64
  %10 = getelementptr inbounds ptr, ptr %8, i64 %9
  %11 = load ptr, ptr %10, align 8, !tbaa !82
  %12 = tail call i32 @av_index_search_timestamp(ptr noundef %11, i64 noundef %2, i32 noundef %3) #7
  %13 = icmp slt i32 %12, 0
  br i1 %13, label %41, label %14

14:                                               ; preds = %4
  %15 = getelementptr inbounds nuw i8, ptr %11, i64 320
  %16 = load ptr, ptr %15, align 8, !tbaa !91
  %17 = zext nneg i32 %12 to i64
  %18 = getelementptr inbounds nuw %struct.AVIndexEntry, ptr %16, i64 %17
  %19 = getelementptr inbounds nuw i8, ptr %18, i64 8
  %20 = load i64, ptr %19, align 8, !tbaa !103
  %21 = icmp slt i64 %20, %2
  br i1 %21, label %41, label %22

22:                                               ; preds = %14
  %23 = getelementptr inbounds nuw i8, ptr %0, i64 32
  %24 = load ptr, ptr %23, align 8, !tbaa !27
  %25 = load i64, ptr %18, align 8, !tbaa !105
  %26 = tail call i64 @avio_seek(ptr noundef %24, i64 noundef %25, i32 noundef 0) #7
  %27 = icmp slt i64 %26, 0
  br i1 %27, label %41, label %.preheader

.preheader:                                       ; preds = %22
  %28 = getelementptr inbounds nuw i8, ptr %0, i64 44
  %29 = load i32, ptr %28, align 4, !tbaa !106
  %.not = icmp eq i32 %29, 0
  br i1 %.not, label %._crit_edge, label %.lr.ph

.lr.ph:                                           ; preds = %.preheader
  %30 = load ptr, ptr %7, align 8, !tbaa !81
  %wide.trip.count = zext i32 %29 to i64
  br label %34

._crit_edge:                                      ; preds = %34, %.preheader
  %31 = load ptr, ptr %23, align 8, !tbaa !27
  %32 = tail call i64 @avio_seek(ptr noundef %31, i64 noundef 0, i32 noundef 1) #7
  %33 = getelementptr inbounds nuw i8, ptr %6, i64 56
  store i64 %32, ptr %33, align 8, !tbaa !28
  br label %41

34:                                               ; preds = %.lr.ph, %34
  %indvars.iv = phi i64 [ 0, %.lr.ph ], [ %indvars.iv.next, %34 ]
  %35 = getelementptr inbounds nuw ptr, ptr %30, i64 %indvars.iv
  %36 = load ptr, ptr %35, align 8, !tbaa !82
  %37 = getelementptr inbounds nuw i8, ptr %36, i64 24
  %38 = load ptr, ptr %37, align 8, !tbaa !68
  %39 = getelementptr inbounds nuw i8, ptr %38, i64 24
  store i64 %20, ptr %39, align 8, !tbaa !88
  %40 = getelementptr inbounds nuw i8, ptr %38, i64 16
  store i64 -9223372036854775808, ptr %40, align 8, !tbaa !69
  %indvars.iv.next = add nuw nsw i64 %indvars.iv, 1
  %exitcond.not = icmp eq i64 %indvars.iv.next, %wide.trip.count
  br i1 %exitcond.not, label %._crit_edge, label %34, !llvm.loop !107

41:                                               ; preds = %22, %14, %4, %._crit_edge
  %.0 = phi i32 [ 0, %._crit_edge ], [ -1, %4 ], [ -11, %14 ], [ -1, %22 ]
  ret i32 %.0
}